; Function Attrs: mustprogress nounwind uwtable
define internal fastcc void @"_ZZN9grpc_core9XdsClient13WatchResourceEPKNS_15XdsResourceTypeESt17basic_string_viewIcSt11char_traitsIcEENS_13RefCountedPtrINS0_24ResourceWatcherInterfaceEEEEN3$_1D2Ev"(ptr nocapture noundef nonnull readonly align 8 dereferenceable(24) %this) unnamed_addr #4 align 2 personality ptr @__gxx_personality_v0 {
entry:
  %_M_refcount.i.i = getelementptr inbounds i8, ptr %this, i64 16
  %0 = load ptr, ptr %_M_refcount.i.i, align 8
  %cmp.not.i.i.i = icmp eq ptr %0, null
  br i1 %cmp.not.i.i.i, label %_ZNSt10shared_ptrIKN9grpc_core15XdsResourceType12ResourceDataEED2Ev.exit, label %if.then.i.i.i

if.then.i.i.i:                                    ; preds = %entry
  %_M_use_count.i.i.i.i = getelementptr inbounds i8, ptr %0, i64 8
  %1 = load atomic i64, ptr %_M_use_count.i.i.i.i acquire, align 8
  %cmp.i.i.i.i = icmp eq i64 %1, 4294967297
  %2 = trunc i64 %1 to i32
  br i1 %cmp.i.i.i.i, label %if.then.i.i.i.i, label %if.end.i.i.i.i

if.then.i.i.i.i:                                  ; preds = %if.then.i.i.i
  store i32 0, ptr %_M_use_count.i.i.i.i, align 8
  %_M_weak_count.i.i.i.i = getelementptr inbounds i8, ptr %0, i64 12
  store i32 0, ptr %_M_weak_count.i.i.i.i, align 4
  %vtable.i.i.i.i = load ptr, ptr %0, align 8
  %vfn.i.i.i.i = getelementptr inbounds i8, ptr %vtable.i.i.i.i, i64 16
  %3 = load ptr, ptr %vfn.i.i.i.i, align 8
  tail call void %3(ptr noundef nonnull align 8 dereferenceable(16) %0) #25
  br label %if.end8.sink.split.i.i.i.i

if.end.i.i.i.i:                                   ; preds = %if.then.i.i.i
  %4 = load i8, ptr @__libc_single_threaded, align 1
  %tobool.i.i.not.i.i.i.i = icmp eq i8 %4, 0
  br i1 %tobool.i.i.not.i.i.i.i, label %if.else.i.i.i.i.i, label %if.then.i.i.i.i.i

if.then.i.i.i.i.i:                                ; preds = %if.end.i.i.i.i
  %add.i.i.i.i.i = add nsw i32 %2, -1
  store i32 %add.i.i.i.i.i, ptr %_M_use_count.i.i.i.i, align 4
  br label %_ZN9__gnu_cxx27__exchange_and_add_dispatchEPii.exit.i.i.i.i

if.else.i.i.i.i.i:                                ; preds = %if.end.i.i.i.i
  %5 = atomicrmw volatile add ptr %_M_use_count.i.i.i.i, i32 -1 acq_rel, align 4
  br label %_ZN9__gnu_cxx27__exchange_and_add_dispatchEPii.exit.i.i.i.i

_ZN9__gnu_cxx27__exchange_and_add_dispatchEPii.exit.i.i.i.i: ; preds = %if.else.i.i.i.i.i, %if.then.i.i.i.i.i
  %retval.i.0.i.i.i.i = phi i32 [ %2, %if.then.i.i.i.i.i ], [ %5, %if.else.i.i.i.i.i ]
  %cmp6.i.i.i.i = icmp eq i32 %retval.i.0.i.i.i.i, 1
  br i1 %cmp6.i.i.i.i, label %if.then7.i.i.i.i, label %_ZNSt10shared_ptrIKN9grpc_core15XdsResourceType12ResourceDataEED2Ev.exit

if.then7.i.i.i.i:                                 ; preds = %_ZN9__gnu_cxx27__exchange_and_add_dispatchEPii.exit.i.i.i.i
  %vtable.i.i.i.i.i.i = load ptr, ptr %0, align 8
  %vfn.i.i.i.i.i.i = getelementptr inbounds i8, ptr %vtable.i.i.i.i.i.i, i64 16
  %6 = load ptr, ptr %vfn.i.i.i.i.i.i, align 8
  tail call void %6(ptr noundef nonnull align 8 dereferenceable(16) %0) #25
  %_M_weak_count.i.i.i.i.i.i = getelementptr inbounds i8, ptr %0, i64 12
  %7 = load i8, ptr @__libc_single_threaded, align 1
  %tobool.i.i.not.i.i.i.i.i.i = icmp eq i8 %7, 0
  br i1 %tobool.i.i.not.i.i.i.i.i.i, label %if.else.i.i.i.i.i.i.i, label %if.then.i.i.i.i.i.i.i

if.then.i.i.i.i.i.i.i:                            ; preds = %if.then7.i.i.i.i
  %8 = load i32, ptr %_M_weak_count.i.i.i.i.i.i, align 4
  %add.i.i.i.i.i.i.i = add nsw i32 %8, -1
  store i32 %add.i.i.i.i.i.i.i, ptr %_M_weak_count.i.i.i.i.i.i, align 4
  br label %_ZN9__gnu_cxx27__exchange_and_add_dispatchEPii.exit.i.i.i.i.i.i

if.else.i.i.i.i.i.i.i:                            ; preds = %if.then7.i.i.i.i
  %9 = atomicrmw volatile add ptr %_M_weak_count.i.i.i.i.i.i, i32 -1 acq_rel, align 4
  br label %_ZN9__gnu_cxx27__exchange_and_add_dispatchEPii.exit.i.i.i.i.i.i

_ZN9__gnu_cxx27__exchange_and_add_dispatchEPii.exit.i.i.i.i.i.i: ; preds = %if.else.i.i.i.i.i.i.i, %if.then.i.i.i.i.i.i.i
  %retval.i.0.i.i.i.i.i.i = phi i32 [ %8, %if.then.i.i.i.i.i.i.i ], [ %9, %if.else.i.i.i.i.i.i.i ]
  %cmp.i.i.i.i.i.i = icmp eq i32 %retval.i.0.i.i.i.i.i.i, 1
  br i1 %cmp.i.i.i.i.i.i, label %if.end8.sink.split.i.i.i.i, label %_ZNSt10shared_ptrIKN9grpc_core15XdsResourceType12ResourceDataEED2Ev.exit

if.end8.sink.split.i.i.i.i:                       ; preds = %_ZN9__gnu_cxx27__exchange_and_add_dispatchEPii.exit.i.i.i.i.i.i, %if.then.i.i.i.i
  %vtable2.i.i.i.i.i.i = load ptr, ptr %0, align 8
  %vfn3.i.i.i.i.i.i = getelementptr inbounds i8, ptr %vtable2.i.i.i.i.i.i, i64 24
  %10 = load ptr, ptr %vfn3.i.i.i.i.i.i, align 8
  tail call void %10(ptr noundef nonnull align 8 dereferenceable(16) %0) #25
  br label %_ZNSt10shared_ptrIKN9grpc_core15XdsResourceType12ResourceDataEED2Ev.exit

_ZNSt10shared_ptrIKN9grpc_core15XdsResourceType12ResourceDataEED2Ev.exit: ; preds = %entry, %_ZN9__gnu_cxx27__exchange_and_add_dispatchEPii.exit.i.i.i.i, %_ZN9__gnu_cxx27__exchange_and_add_dispatchEPii.exit.i.i.i.i.i.i, %if.end8.sink.split.i.i.i.i
  %11 = load ptr, ptr %this, align 8
  %cmp.not.i = icmp eq ptr %11, null
  br i1 %cmp.not.i, label %_ZN9grpc_core13RefCountedPtrINS_9XdsClient24ResourceWatcherInterfaceEED2Ev.exit, label %if.then.i

if.then.i:                                        ; preds = %_ZNSt10shared_ptrIKN9grpc_core15XdsResourceType12ResourceDataEED2Ev.exit
  %refs_.i.i = getelementptr inbounds i8, ptr %11, i64 8
  %12 = atomicrmw sub ptr %refs_.i.i, i64 1 acq_rel, align 8
  %cmp.i.i.i = icmp eq i64 %12, 1
  br i1 %cmp.i.i.i, label %if.then.i.i, label %_ZN9grpc_core13RefCountedPtrINS_9XdsClient24ResourceWatcherInterfaceEED2Ev.exit

if.then.i.i:                                      ; preds = %if.then.i
  %vtable.i.i.i = load ptr, ptr %11, align 8
  %vfn.i.i.i = getelementptr inbounds i8, ptr %vtable.i.i.i, i64 8
  %13 = load ptr, ptr %vfn.i.i.i, align 8
  tail call void %13(ptr noundef nonnull align 8 dereferenceable(16) %11) #25
  br label %_ZN9grpc_core13RefCountedPtrINS_9XdsClient24ResourceWatcherInterfaceEED2Ev.exit

_ZN9grpc_core13RefCountedPtrINS_9XdsClient24ResourceWatcherInterfaceEED2Ev.exit: ; preds = %_ZNSt10shared_ptrIKN9grpc_core15XdsResourceType12ResourceDataEED2Ev.exit, %if.then.i, %if.then.i.i
  ret void
}